target datalayout = "e-m:e-p270:32:32-p271:32:32-p272:64:64-i64:64-i128:128-f80:128-n8:16:32:64-S128"
target triple = "x86_64-pc-linux-gnu"

@.str.4 = private unnamed_addr constant [4 x i8] c"...\00", align 1
@.str.5 = private unnamed_addr constant [10 x i8] c"[string \22\00", align 1
@.str.6 = private unnamed_addr constant [3 x i8] c"\22]\00", align 1

; Function Attrs: nounwind uwtable
define hidden void @luaO_chunkid(ptr noundef %0, ptr noundef %1, i64 noundef %2) #0 {
  %4 = alloca ptr, align 8
  %5 = alloca ptr, align 8
  %6 = alloca i64, align 8
  %7 = alloca i64, align 8
  %8 = alloca ptr, align 8
  store ptr %0, ptr %4, align 8, !tbaa !24
  store ptr %1, ptr %5, align 8, !tbaa !24
  store i64 %2, ptr %6, align 8, !tbaa !9
  call void @llvm.lifetime.start.p0(i64 8, ptr %7) #10
  store i64 60, ptr %7, align 8, !tbaa !9
  %9 = load ptr, ptr %5, align 8, !tbaa !24
  %10 = load i8, ptr %9, align 1, !tbaa !8
  %11 = sext i8 %10 to i32
  %12 = icmp eq i32 %11, 61
  br i1 %12, label %13, label %36

13:                                               ; preds = %3
  %14 = load i64, ptr %6, align 8, !tbaa !9
  %15 = load i64, ptr %7, align 8, !tbaa !9
  %16 = icmp ule i64 %14, %15
  br i1 %16, label %17, label %23

17:                                               ; preds = %13
  %18 = load ptr, ptr %4, align 8, !tbaa !24
  %19 = load ptr, ptr %5, align 8, !tbaa !24
  %20 = getelementptr inbounds i8, ptr %19, i64 1
  %21 = load i64, ptr %6, align 8, !tbaa !9
  %22 = mul i64 %21, 1
  call void @llvm.memcpy.p0.p0.i64(ptr align 1 %18, ptr align 1 %20, i64 %22, i1 false)
  br label %35

23:                                               ; preds = %13
  %24 = load ptr, ptr %4, align 8, !tbaa !24
  %25 = load ptr, ptr %5, align 8, !tbaa !24
  %26 = getelementptr inbounds i8, ptr %25, i64 1
  %27 = load i64, ptr %7, align 8, !tbaa !9
  %28 = sub i64 %27, 1
  %29 = mul i64 %28, 1
  call void @llvm.memcpy.p0.p0.i64(ptr align 1 %24, ptr align 1 %26, i64 %29, i1 false)
  %30 = load i64, ptr %7, align 8, !tbaa !9
  %31 = sub i64 %30, 1
  %32 = load ptr, ptr %4, align 8, !tbaa !24
  %33 = getelementptr inbounds nuw i8, ptr %32, i64 %31
  store ptr %33, ptr %4, align 8, !tbaa !24
  %34 = load ptr, ptr %4, align 8, !tbaa !24
  store i8 0, ptr %34, align 1, !tbaa !8
  br label %35

35:                                               ; preds = %23, %17
  br label %119

36:                                               ; preds = %3
  %37 = load ptr, ptr %5, align 8, !tbaa !24
  %38 = load i8, ptr %37, align 1, !tbaa !8
  %39 = sext i8 %38 to i32
  %40 = icmp eq i32 %39, 64
  br i1 %40, label %41, label %68

41:                                               ; preds = %36
  %42 = load i64, ptr %6, align 8, !tbaa !9
  %43 = load i64, ptr %7, align 8, !tbaa !9
  %44 = icmp ule i64 %42, %43
  br i1 %44, label %45, label %51

45:                                               ; preds = %41
  %46 = load ptr, ptr %4, align 8, !tbaa !24
  %47 = load ptr, ptr %5, align 8, !tbaa !24
  %48 = getelementptr inbounds i8, ptr %47, i64 1
  %49 = load i64, ptr %6, align 8, !tbaa !9
  %50 = mul i64 %49, 1
  call void @llvm.memcpy.p0.p0.i64(ptr align 1 %46, ptr align 1 %48, i64 %50, i1 false)
  br label %67

51:                                               ; preds = %41
  %52 = load ptr, ptr %4, align 8, !tbaa !24
  call void @llvm.memcpy.p0.p0.i64(ptr align 1 %52, ptr align 1 @.str.4, i64 3, i1 false)
  %53 = load ptr, ptr %4, align 8, !tbaa !24
  %54 = getelementptr inbounds nuw i8, ptr %53, i64 3
  store ptr %54, ptr %4, align 8, !tbaa !24
  %55 = load i64, ptr %7, align 8, !tbaa !9
  %56 = sub i64 %55, 3
  store i64 %56, ptr %7, align 8, !tbaa !9
  %57 = load ptr, ptr %4, align 8, !tbaa !24
  %58 = load ptr, ptr %5, align 8, !tbaa !24
  %59 = getelementptr inbounds i8, ptr %58, i64 1
  %60 = load i64, ptr %6, align 8, !tbaa !9
  %61 = getelementptr inbounds nuw i8, ptr %59, i64 %60
  %62 = load i64, ptr %7, align 8, !tbaa !9
  %63 = sub i64 0, %62
  %64 = getelementptr inbounds i8, ptr %61, i64 %63
  %65 = load i64, ptr %7, align 8, !tbaa !9
  %66 = mul i64 %65, 1
  call void @llvm.memcpy.p0.p0.i64(ptr align 1 %57, ptr align 1 %64, i64 %66, i1 false)
  br label %67

67:                                               ; preds = %51, %45
  br label %118

68:                                               ; preds = %36
  call void @llvm.lifetime.start.p0(i64 8, ptr %8) #10
  %69 = load ptr, ptr %5, align 8, !tbaa !24
  %70 = call ptr @strchr(ptr noundef %69, i32 noundef 10) #11
  store ptr %70, ptr %8, align 8, !tbaa !24
  %71 = load ptr, ptr %4, align 8, !tbaa !24
  call void @llvm.memcpy.p0.p0.i64(ptr align 1 %71, ptr align 1 @.str.5, i64 9, i1 false)
  %72 = load ptr, ptr %4, align 8, !tbaa !24
  %73 = getelementptr inbounds nuw i8, ptr %72, i64 9
  store ptr %73, ptr %4, align 8, !tbaa !24
  %74 = load i64, ptr %7, align 8, !tbaa !9
  %75 = sub i64 %74, 15
  store i64 %75, ptr %7, align 8, !tbaa !9
  %76 = load i64, ptr %6, align 8, !tbaa !9
  %77 = load i64, ptr %7, align 8, !tbaa !9
  %78 = icmp ult i64 %76, %77
  br i1 %78, label %79, label %90

79:                                               ; preds = %68
  %80 = load ptr, ptr %8, align 8, !tbaa !24
  %81 = icmp eq ptr %80, null
  br i1 %81, label %82, label %90

82:                                               ; preds = %79
  %83 = load ptr, ptr %4, align 8, !tbaa !24
  %84 = load ptr, ptr %5, align 8, !tbaa !24
  %85 = load i64, ptr %6, align 8, !tbaa !9
  %86 = mul i64 %85, 1
  call void @llvm.memcpy.p0.p0.i64(ptr align 1 %83, ptr align 1 %84, i64 %86, i1 false)
  %87 = load i64, ptr %6, align 8, !tbaa !9
  %88 = load ptr, ptr %4, align 8, !tbaa !24
  %89 = getelementptr inbounds nuw i8, ptr %88, i64 %87
  store ptr %89, ptr %4, align 8, !tbaa !24
  br label %116

90:                                               ; preds = %79, %68
  %91 = load ptr, ptr %8, align 8, !tbaa !24
  %92 = icmp ne ptr %91, null
  br i1 %92, label %93, label %99

93:                                               ; preds = %90
  %94 = load ptr, ptr %8, align 8, !tbaa !24
  %95 = load ptr, ptr %5, align 8, !tbaa !24
  %96 = ptrtoint ptr %94 to i64
  %97 = ptrtoint ptr %95 to i64
  %98 = sub i64 %96, %97
  store i64 %98, ptr %6, align 8, !tbaa !9
  br label %99

99:                                               ; preds = %93, %90
  %100 = load i64, ptr %6, align 8, !tbaa !9
  %101 = load i64, ptr %7, align 8, !tbaa !9
  %102 = icmp ugt i64 %100, %101
  br i1 %102, label %103, label %105

103:                                              ; preds = %99
  %104 = load i64, ptr %7, align 8, !tbaa !9
  store i64 %104, ptr %6, align 8, !tbaa !9
  br label %105

105:                                              ; preds = %103, %99
  %106 = load ptr, ptr %4, align 8, !tbaa !24
  %107 = load ptr, ptr %5, align 8, !tbaa !24
  %108 = load i64, ptr %6, align 8, !tbaa !9
  %109 = mul i64 %108, 1
  call void @llvm.memcpy.p0.p0.i64(ptr align 1 %106, ptr align 1 %107, i64 %109, i1 false)
  %110 = load i64, ptr %6, align 8, !tbaa !9
  %111 = load ptr, ptr %4, align 8, !tbaa !24
  %112 = getelementptr inbounds nuw i8, ptr %111, i64 %110
  store ptr %112, ptr %4, align 8, !tbaa !24
  %113 = load ptr, ptr %4, align 8, !tbaa !24
  call void @llvm.memcpy.p0.p0.i64(ptr align 1 %113, ptr align 1 @.str.4, i64 3, i1 false)
  %114 = load ptr, ptr %4, align 8, !tbaa !24
  %115 = getelementptr inbounds nuw i8, ptr %114, i64 3
  store ptr %115, ptr %4, align 8, !tbaa !24
  br label %116

116:                                              ; preds = %105, %82
  %117 = load ptr, ptr %4, align 8, !tbaa !24
  call void @llvm.memcpy.p0.p0.i64(ptr align 1 %117, ptr align 1 @.str.6, i64 3, i1 false)
  call void @llvm.lifetime.end.p0(i64 8, ptr %8) #10
  br label %118

118:                                              ; preds = %116, %67
  br label %119

119:                                              ; preds = %118, %35
  call void @llvm.lifetime.end.p0(i64 8, ptr %7) #10
  ret void
}