; Function Attrs: mustprogress nofree nounwind willreturn memory(argmem: readwrite) uwtable
define hidden void @luaO_chunkid(ptr noundef writeonly captures(none) %0, ptr noundef %1, i64 noundef %2) local_unnamed_addr #10 {
  %4 = load i8, ptr %1, align 1, !tbaa !4
  switch i8 %4, label %20 [
    i8 61, label %5
    i8 64, label %11
  ]

5:                                                ; preds = %3
  %6 = icmp ult i64 %2, 61
  %7 = getelementptr inbounds nuw i8, ptr %1, i64 1
  br i1 %6, label %8, label %9

8:                                                ; preds = %5
  tail call void @llvm.memcpy.p0.p0.i64(ptr align 1 %0, ptr nonnull align 1 %7, i64 %2, i1 false)
  br label %34

9:                                                ; preds = %5
  tail call void @llvm.memcpy.p0.p0.i64(ptr noundef nonnull align 1 dereferenceable(59) %0, ptr noundef nonnull align 1 dereferenceable(59) %7, i64 59, i1 false)
  %10 = getelementptr inbounds nuw i8, ptr %0, i64 59
  store i8 0, ptr %10, align 1, !tbaa !4
  br label %34

11:                                               ; preds = %3
  %12 = icmp ult i64 %2, 61
  br i1 %12, label %13, label %15

13:                                               ; preds = %11
  %14 = getelementptr inbounds nuw i8, ptr %1, i64 1
  tail call void @llvm.memcpy.p0.p0.i64(ptr align 1 %0, ptr nonnull align 1 %14, i64 %2, i1 false)
  br label %34

15:                                               ; preds = %11
  tail call void @llvm.memcpy.p0.p0.i64(ptr noundef nonnull align 1 dereferenceable(3) %0, ptr noundef nonnull align 1 dereferenceable(3) @.str.4, i64 3, i1 false)
  %16 = getelementptr inbounds nuw i8, ptr %0, i64 3
  %17 = getelementptr inbounds nuw i8, ptr %1, i64 1
  %18 = getelementptr inbounds nuw i8, ptr %17, i64 %2
  %19 = getelementptr inbounds i8, ptr %18, i64 -57
  tail call void @llvm.memcpy.p0.p0.i64(ptr noundef nonnull align 1 dereferenceable(57) %16, ptr noundef nonnull align 1 dereferenceable(57) %19, i64 57, i1 false)
  br label %34

20:                                               ; preds = %3
  %21 = tail call ptr @strchr(ptr noundef nonnull dereferenceable(1) %1, i32 noundef 10) #19
  tail call void @llvm.memcpy.p0.p0.i64(ptr noundef nonnull align 1 dereferenceable(9) %0, ptr noundef nonnull align 1 dereferenceable(9) @.str.5, i64 9, i1 false)
  %22 = getelementptr inbounds nuw i8, ptr %0, i64 9
  %23 = icmp ult i64 %2, 45
  %24 = icmp eq ptr %21, null
  %or.cond = select i1 %23, i1 %24, i1 false
  br i1 %or.cond, label %25, label %27

25:                                               ; preds = %20
  tail call void @llvm.memcpy.p0.p0.i64(ptr nonnull align 1 %22, ptr nonnull align 1 %1, i64 %2, i1 false)
  %26 = getelementptr inbounds nuw i8, ptr %22, i64 %2
  br label %33

27:                                               ; preds = %20
  %28 = ptrtoint ptr %21 to i64
  %29 = ptrtoint ptr %1 to i64
  %30 = sub i64 %28, %29
  %.052 = select i1 %24, i64 %2, i64 %30
  %.1 = tail call i64 @llvm.umin.i64(i64 %.052, i64 45)
  tail call void @llvm.memcpy.p0.p0.i64(ptr nonnull align 1 %22, ptr nonnull align 1 %1, i64 %.1, i1 false)
  %31 = getelementptr inbounds nuw i8, ptr %22, i64 %.1
  tail call void @llvm.memcpy.p0.p0.i64(ptr noundef nonnull align 1 dereferenceable(3) %31, ptr noundef nonnull align 1 dereferenceable(3) @.str.4, i64 3, i1 false)
  %32 = getelementptr inbounds nuw i8, ptr %31, i64 3
  br label %33

33:                                               ; preds = %27, %25
  %.0 = phi ptr [ %26, %25 ], [ %32, %27 ]
  tail call void @llvm.memcpy.p0.p0.i64(ptr noundef nonnull align 1 dereferenceable(3) %.0, ptr noundef nonnull align 1 dereferenceable(3) @.str.6, i64 3, i1 false)
  br label %34

34:                                               ; preds = %33, %15, %13, %8, %9
  ret void
}